Certificate:
    Data:
        Version: 3 (0x2)
        Serial Number:
            b1:19:a8:63:92:75:c2:43:ce:86:54:cf:97:2e:da:d4
        Signature Algorithm: sha256WithRSAEncryption
        Issuer: CN=OpenVPN-CA
        Validity
            Not Before: Jun 30 05:26:40 2022 GMT
            Not After : Oct  2 05:26:40 2024 GMT
        Subject: CN=site1
        Subject Public Key Info:
            Public Key Algorithm: rsaEncryption
                RSA Public-Key: (2048 bit)
                Modulus:
                    00:c0:6d:46:ab:e4:d4:c1:31:26:89:fa:f6:74:b8:
                    b0:b2:ef:69:4f:f4:a9:00:12:49:89:34:17:c0:29:
                    53:9d:4a:d6:a1:72:9c:0d:a7:c7:aa:b4:e9:13:ed:
                    a0:cf:df:fe:e0:2c:8e:b7:cd:13:f3:79:22:02:68:
                    59:1e:8e:8e:62:c8:bd:5f:ab:4e:7d:1e:45:90:87:
                    47:8e:02:ae:0d:4d:f6:26:1a:51:04:ae:6a:9d:0e:
                    ed:70:77:80:f5:7d:04:c8:d5:c9:f0:5f:36:e1:c5:
                    4a:50:08:26:bc:87:05:9a:76:e4:26:f3:e4:1f:44:
                    08:1c:46:f6:4b:fb:59:40:1d:ae:b1:e4:1f:d3:39:
                    98:73:15:55:69:cc:00:fc:21:6b:36:1e:af:8d:21:
                    dd:20:4b:7f:fc:d7:0b:31:a6:49:10:48:3d:4f:d0:
                    e4:44:90:3c:12:44:ba:35:4d:bc:ed:92:b3:9b:46:
                    02:96:3e:42:ee:1c:02:4b:6a:ae:45:7c:97:3b:b8:
                    70:fd:23:96:83:16:80:93:1f:d4:b1:93:45:6f:93:
                    4e:8b:cf:36:78:df:8c:8c:cf:41:b8:72:a1:d8:b5:
                    50:a3:6f:ea:f7:00:4c:40:24:b6:16:ae:88:d8:a4:
                    aa:91:41:3c:9c:60:c2:18:6c:4a:c6:39:00:6c:3e:
                    21:21
                Exponent: 65537 (0x10001)
        X509v3 extensions:
            X509v3 Basic Constraints: 
                CA:FALSE
            X509v3 Subject Key Identifier: 
                8D:F6:6D:1C:20:76:E2:C3:06:C2:D4:40:1D:B3:D4:47:C3:AD:E3:D6
            X509v3 Authority Key Identifier: 
                keyid:39:1F:71:C5:05:FB:EF:00:3E:54:AD:22:E8:95:71:94:21:60:56:AF
                DirName:/CN=OpenVPN-CA
                serial:56:35:D2:7D:DA:D9:66:EF:E5:F6:91:10:3A:99:77:9E:E2:2B:92:01

            X509v3 Extended Key Usage: 
                TLS Web Client Authentication
            X509v3 Key Usage: 
                Digital Signature
    Signature Algorithm: sha256WithRSAEncryption
         75:51:40:eb:0e:bd:ad:41:94:fb:4c:35:ed:71:7c:0c:9f:7b:
         2e:c5:2c:e1:a1:ff:0f:41:e6:7a:51:87:95:bf:d8:87:fc:07:
         d4:c7:a3:1e:a1:92:25:01:b4:95:db:03:88:ca:84:b5:08:a3:
         11:13:5b:f8:34:3c:ee:55:76:58:14:43:ec:80:e5:54:1d:02:
         c3:ae:86:c0:12:09:49:58:cb:a7:20:0b:9f:da:71:b9:a3:38:
         b4:cb:44:3c:e4:2e:d6:8b:50:92:70:c6:da:d6:16:2d:1d:05:
         fc:2f:d9:ae:8e:ea:63:a6:5f:1f:15:34:97:8b:59:3e:7a:19:
         97:56:91:27:7b:c4:29:e5:55:24:6a:2e:a2:1a:61:d7:56:a3:
         44:7e:54:96:8f:29:f1:8e:bd:d7:56:19:ee:db:44:a3:08:ed:
         5c:85:db:64:6a:ce:3e:34:0d:08:1d:16:fc:a5:1b:7a:f9:61:
         dc:bf:b1:28:9c:3a:ca:d9:9e:23:37:9d:0a:26:8a:1c:1d:cd:
         d9:0d:72:9e:c1:f9:cd:c0:0b:5f:af:46:dd:32:c6:7a:58:41:
         ba:76:67:75:f3:e3:07:b9:1e:e5:ca:a7:c3:c7:06:cf:c8:1c:
         d8:7a:29:60:4e:71:4c:b7:13:2a:ac:6d:fb:fc:c4:db:c1:cb:
         8b:5e:02:9f
-----BEGIN CERTIFICATE-----
MIIDUjCCAjqgAwIBAgIRALEZqGOSdcJDzoZUz5cu2tQwDQYJKoZIhvcNAQELBQAw
FTETMBEGA1UEAwwKT3BlblZQTi1DQTAeFw0yMjA2MzAwNTI2NDBaFw0yNDEwMDIw
NTI2NDBaMBAxDjAMBgNVBAMMBXNpdGUxMIIBIjANBgkqhkiG9w0BAQEFAAOCAQ8A
MIIBCgKCAQEAwG1Gq+TUwTEmifr2dLiwsu9pT/SpABJJiTQXwClTnUrWoXKcDafH
qrTpE+2gz9/+4CyOt80T83kiAmhZHo6OYsi9X6tOfR5FkIdHjgKuDU32JhpRBK5q
nQ7tcHeA9X0EyNXJ8F824cVKUAgmvIcFmnbkJvPkH0QIHEb2S/tZQB2useQf0zmY
cxVVacwA/CFrNh6vjSHdIEt//NcLMaZJEEg9T9DkRJA8EkS6NU287ZKzm0YClj5C
7hwCS2quRXyXO7hw/SOWgxaAkx/UsZNFb5NOi882eN+MjM9BuHKh2LVQo2/q9wBM
QCS2Fq6I2KSqkUE8nGDCGGxKxjkAbD4hIQIDAQABo4GhMIGeMAkGA1UdEwQCMAAw
HQYDVR0OBBYEFI32bRwgduLDBsLUQB2z1EfDrePWMFAGA1UdIwRJMEeAFDkfccUF
++8APlStIuiVcZQhYFavoRmkFzAVMRMwEQYDVQQDDApPcGVuVlBOLUNBghRWNdJ9
2tlm7+X2kRA6mXee4iuSATATBgNVHSUEDDAKBggrBgEFBQcDAjALBgNVHQ8EBAMC
B4AwDQYJKoZIhvcNAQELBQADggEBAHVRQOsOva1BlPtMNe1xfAyfey7FLOGh/w9B
5npRh5W/2If8B9THox6hkiUBtJXbA4jKhLUIoxETW/g0PO5VdlgUQ+yA5VQdAsOu
hsASCUlYy6cgC5/acbmjOLTLRDzkLtaLUJJwxtrWFi0dBfwv2a6O6mOmXx8VNJeL
WT56GZdWkSd7xCnlVSRqLqIaYddWo0R+VJaPKfGOvddWGe7bRKMI7VyF22Rqzj40
DQgdFvylG3r5Ydy/sSicOsrZniM3nQomihwdzdkNcp7B+c3AC1+vRt0yxnpYQbp2
Z3Xz4we5HuXKp8PHBs/IHNh6KWBOcUy3Eyqsbfv8xNvBy4teAp8=
-----END CERTIFICATE-----
